target datalayout = "e-m:e-p270:32:32-p271:32:32-p272:64:64-i64:64-i128:128-f80:128-n8:16:32:64-S128"
target triple = "x86_64-pc-linux-gnu"

%struct.hs_scratch = type { i32, i8, i32, i32, i32, i32, i32, %struct.RoseContext, ptr, ptr, ptr, ptr, ptr, ptr, ptr, i64, %struct.catchup_pq, %struct.core_info, %struct.match_deduper, i32, i32, ptr, ptr, ptr, ptr, ptr, i64, i32, i32, i32, i32, i32, ptr, ptr, i8 }
%struct.RoseContext = type { i8, i64, i64, i64, i64, i64, i64, i64, i64, i64, i32, i32, ptr, i64, ptr, i64 }
%struct.catchup_pq = type { ptr, i32 }
%struct.core_info = type { ptr, ptr, ptr, ptr, ptr, ptr, ptr, ptr, i64, ptr, i64, i64, i8 }
%struct.match_deduper = type { [2 x ptr], [2 x ptr], [2 x ptr], i32, i32, i64, i8 }

@hs_scratch_free = external global ptr, align 8

; Function Attrs: alwaysinline nounwind uwtable
define internal signext i8 @markScratchInUse(ptr noundef %0) #3 {
  %2 = alloca i8, align 1
  %3 = alloca ptr, align 8
  store ptr %0, ptr %3, align 8
  br label %4

4:                                                ; preds = %1
  br label %5

5:                                                ; preds = %4
  %6 = load ptr, ptr %3, align 8
  %7 = getelementptr inbounds nuw %struct.hs_scratch, ptr %6, i32 0, i32 1
  %8 = load i8, ptr %7, align 4
  %9 = icmp ne i8 %8, 0
  br i1 %9, label %10, label %13

10:                                               ; preds = %5
  br label %11

11:                                               ; preds = %10
  br label %12

12:                                               ; preds = %11
  store i8 1, ptr %2, align 1
  br label %16

13:                                               ; preds = %5
  %14 = load ptr, ptr %3, align 8
  %15 = getelementptr inbounds nuw %struct.hs_scratch, ptr %14, i32 0, i32 1
  store i8 1, ptr %15, align 4
  store i8 0, ptr %2, align 1
  br label %16

16:                                               ; preds = %13, %12
  %17 = load i8, ptr %2, align 1
  ret i8 %17
}

; Function Attrs: nounwind uwtable
define dso_local i32 @hs_free_scratch(ptr noundef %0) #0 {
  %2 = alloca i32, align 4
  %3 = alloca ptr, align 8
  store ptr %0, ptr %3, align 8
  %4 = load ptr, ptr %3, align 8
  %5 = icmp ne ptr %4, null
  br i1 %5, label %6, label %32

6:                                                ; preds = %1
  %7 = load ptr, ptr %3, align 8
  %8 = ptrtoint ptr %7 to i64
  %9 = and i64 %8, 63
  %10 = icmp eq i64 %9, 0
  br i1 %10, label %12, label %11

11:                                               ; preds = %6
  store i32 -1, ptr %2, align 4
  br label %33

12:                                               ; preds = %6
  %13 = load ptr, ptr %3, align 8
  %14 = getelementptr inbounds nuw %struct.hs_scratch, ptr %13, i32 0, i32 0
  %15 = load i32, ptr %14, align 64
  %16 = icmp ne i32 %15, 1414480473
  br i1 %16, label %17, label %18

17:                                               ; preds = %12
  store i32 -1, ptr %2, align 4
  br label %33

18:                                               ; preds = %12
  %19 = load ptr, ptr %3, align 8
  %20 = call signext i8 @markScratchInUse(ptr noundef %19)
  %21 = icmp ne i8 %20, 0
  br i1 %21, label %22, label %23

22:                                               ; preds = %18
  store i32 -10, ptr %2, align 4
  br label %33

23:                                               ; preds = %18
  %24 = load ptr, ptr %3, align 8
  %25 = getelementptr inbounds nuw %struct.hs_scratch, ptr %24, i32 0, i32 0
  store i32 0, ptr %25, align 64
  br label %26

26:                                               ; preds = %23
  br label %27

27:                                               ; preds = %26
  %28 = load ptr, ptr @hs_scratch_free, align 8
  %29 = load ptr, ptr %3, align 8
  %30 = getelementptr inbounds nuw %struct.hs_scratch, ptr %29, i32 0, i32 32
  %31 = load ptr, ptr %30, align 8
  call void %28(ptr noundef %31)
  br label %32

32:                                               ; preds = %27, %1
  store i32 0, ptr %2, align 4
  br label %33

33:                                               ; preds = %32, %22, %17, %11
  %34 = load i32, ptr %2, align 4
  ret i32 %34
}