; Function Attrs: nounwind uwtable
define dso_local range(i32 -10, 1) i32 @hs_free_scratch(ptr noundef %0) local_unnamed_addr #0 {
  %.not = icmp eq ptr %0, null
  br i1 %.not, label %markScratchInUse.exit, label %2

2:                                                ; preds = %1
  %3 = ptrtoint ptr %0 to i64
  %4 = and i64 %3, 63
  %5 = icmp eq i64 %4, 0
  br i1 %5, label %6, label %markScratchInUse.exit

6:                                                ; preds = %2
  %7 = load i32, ptr %0, align 64
  %.not7 = icmp eq i32 %7, 1414480473
  br i1 %.not7, label %8, label %markScratchInUse.exit

8:                                                ; preds = %6
  %9 = getelementptr inbounds nuw i8, ptr %0, i64 4
  %10 = load i8, ptr %9, align 4
  %.not.i = icmp eq i8 %10, 0
  br i1 %.not.i, label %11, label %markScratchInUse.exit

11:                                               ; preds = %8
  store i8 1, ptr %9, align 4
  store i32 0, ptr %0, align 64
  %12 = load ptr, ptr @hs_scratch_free, align 8
  %13 = getelementptr inbounds nuw i8, ptr %0, i64 488
  %14 = load ptr, ptr %13, align 8
  tail call void %12(ptr noundef %14) #5
  br label %markScratchInUse.exit

markScratchInUse.exit:                            ; preds = %8, %1, %11, %6, %2
  %.0 = phi i32 [ -1, %2 ], [ -1, %6 ], [ 0, %11 ], [ 0, %1 ], [ -10, %8 ]
  ret i32 %.0
}